; Function Attrs: mustprogress uwtable
define hidden void @_ZN4cvc58internal4prop11TheoryProxy13notifyRestartEv(ptr noundef nonnull readonly align 8 captures(none) dereferenceable(521) %0) local_unnamed_addr #4 align 2 {
  %2 = getelementptr inbounds nuw i8, ptr %0, i64 24
  %3 = load ptr, ptr %2, align 8, !tbaa !6
  tail call void @_ZN4cvc58internal4prop10PropEngine13spendResourceENS0_8ResourceE(ptr noundef nonnull align 8 dereferenceable(416) %3, i32 noundef 12)
  %4 = getelementptr inbounds nuw i8, ptr %0, i64 56
  %5 = load ptr, ptr %4, align 8, !tbaa !89
  tail call void @_ZN4cvc58internal12TheoryEngine13notifyRestartEv(ptr noundef nonnull align 8 dereferenceable(1480) %5)
  ret void
}